target datalayout = "e-m:e-p270:32:32-p271:32:32-p272:64:64-i64:64-i128:128-f80:128-n8:16:32:64-S128"
target triple = "x86_64-pc-linux-gnu"

%struct.epan_column_info = type { ptr, i32, ptr, ptr, ptr, %struct.col_expr_t, i32, ptr }
%struct.col_expr_t = type { ptr, ptr }
%struct.col_item_t = type { i32, ptr, ptr, ptr, i32, ptr, ptr, ptr, ptr, i32, i32, i32 }
%struct.nstime_t = type { i64, i32 }
%struct._frame_data = type { i32, i32, i32, i32, i64, ptr, ptr, ptr, i16, i16, %struct.nstime_t, %struct.nstime_t, i32, i32, i8 }

@col_decimal_point = internal global ptr null, align 8
@.str.1 = private unnamed_addr constant [1 x i8] zeroinitializer, align 1
@.str.7 = private unnamed_addr constant [20 x i8] c"epan/column-utils.c\00", align 1
@.str.9 = private unnamed_addr constant [31 x i8] c"assertion \22not reached\22 failed\00", align 1
@__func__.get_frame_timestamp_precision = private unnamed_addr constant [30 x i8] c"get_frame_timestamp_precision\00", align 1
@.str.33 = private unnamed_addr constant [27 x i8] c"frame.time_delta_displayed\00", align 1
@__func__.col_set_delta_time_dis = private unnamed_addr constant [23 x i8] c"col_set_delta_time_dis\00", align 1

; Function Attrs: nounwind uwtable
define internal i32 @get_frame_timestamp_precision(ptr noundef %0) #0 {
  %2 = alloca ptr, align 8
  %3 = alloca i32, align 4
  store ptr %0, ptr %2, align 8
  %4 = call i32 @timestamp_get_precision()
  store i32 %4, ptr %3, align 4
  %5 = load i32, ptr %3, align 4
  %6 = icmp eq i32 %5, -1
  br i1 %6, label %7, label %14

7:                                                ; preds = %1
  %8 = load ptr, ptr %2, align 8
  %9 = getelementptr inbounds %struct._frame_data, ptr %8, i32 0, i32 9
  %10 = load i16, ptr %9, align 2
  %11 = lshr i16 %10, 10
  %12 = and i16 %11, 15
  %13 = zext i16 %12 to i32
  store i32 %13, ptr %3, align 4
  br label %19

14:                                               ; preds = %1
  %15 = load i32, ptr %3, align 4
  %16 = icmp slt i32 %15, 0
  br i1 %16, label %17, label %18

17:                                               ; preds = %14
  call void (ptr, i32, ptr, i64, ptr, ptr, ...) @ws_log_fatal_full(ptr noundef @.str.1, i32 noundef 7, ptr noundef @.str.7, i64 noundef 984, ptr noundef @__func__.get_frame_timestamp_precision, ptr noundef @.str.9) #10
  unreachable

18:                                               ; preds = %14
  br label %19

19:                                               ; preds = %18, %7
  %20 = load i32, ptr %3, align 4
  %21 = icmp sgt i32 %20, 9
  br i1 %21, label %22, label %23

22:                                               ; preds = %19
  store i32 9, ptr %3, align 4
  br label %23

23:                                               ; preds = %22, %19
  %24 = load i32, ptr %3, align 4
  ret i32 %24
}

; Function Attrs: nounwind uwtable
define internal void @set_time_seconds(ptr noundef %0, ptr noundef %1, ptr noundef %2) #0 {
  %4 = alloca ptr, align 8
  %5 = alloca ptr, align 8
  %6 = alloca ptr, align 8
  store ptr %0, ptr %4, align 8
  store ptr %1, ptr %5, align 8
  store ptr %2, ptr %6, align 8
  br label %7

7:                                                ; preds = %3
  br label %8

8:                                                ; preds = %7
  %9 = load ptr, ptr %6, align 8
  %10 = load ptr, ptr %5, align 8
  %11 = load ptr, ptr %4, align 8
  %12 = call i32 @get_frame_timestamp_precision(ptr noundef %11)
  call void @display_signed_time(ptr noundef %9, i64 noundef 2048, ptr noundef %10, i32 noundef %12)
  ret void
}

; Function Attrs: nounwind uwtable
define internal void @col_set_delta_time_dis(ptr noundef %0, ptr noundef %1, i32 noundef %2) #0 {
  %4 = alloca ptr, align 8
  %5 = alloca ptr, align 8
  %6 = alloca i32, align 4
  %7 = alloca %struct.nstime_t, align 8
  store ptr %0, ptr %4, align 8
  store ptr %1, ptr %5, align 8
  store i32 %2, ptr %6, align 4
  %8 = load ptr, ptr %4, align 8
  %9 = getelementptr inbounds %struct._frame_data, ptr %8, i32 0, i32 9
  %10 = load i16, ptr %9, align 2
  %11 = lshr i16 %10, 7
  %12 = and i16 %11, 1
  %13 = zext i16 %12 to i32
  %14 = icmp ne i32 %13, 0
  br i1 %14, label %25, label %15

15:                                               ; preds = %3
  %16 = load ptr, ptr %5, align 8
  %17 = getelementptr inbounds %struct.epan_column_info, ptr %16, i32 0, i32 2
  %18 = load ptr, ptr %17, align 8
  %19 = load i32, ptr %6, align 4
  %20 = sext i32 %19 to i64
  %21 = getelementptr %struct.col_item_t, ptr %18, i64 %20
  %22 = getelementptr inbounds %struct.col_item_t, ptr %21, i32 0, i32 8
  %23 = load ptr, ptr %22, align 8
  %24 = getelementptr i8, ptr %23, i64 0
  store i8 0, ptr %24, align 1
  br label %112

25:                                               ; preds = %3
  %26 = load ptr, ptr %5, align 8
  %27 = getelementptr inbounds %struct.epan_column_info, ptr %26, i32 0, i32 0
  %28 = load ptr, ptr %27, align 8
  %29 = load ptr, ptr %4, align 8
  %30 = load ptr, ptr %4, align 8
  %31 = getelementptr inbounds %struct._frame_data, ptr %30, i32 0, i32 13
  %32 = load i32, ptr %31, align 4
  call void @frame_delta_abs_time(ptr noundef %28, ptr noundef %29, i32 noundef %32, ptr noundef %7)
  %33 = call i32 @timestamp_get_seconds_type()
  switch i32 %33, label %95 [
    i32 0, label %34
    i32 1, label %68
  ]

34:                                               ; preds = %25
  %35 = load ptr, ptr %4, align 8
  %36 = load ptr, ptr %5, align 8
  %37 = getelementptr inbounds %struct.epan_column_info, ptr %36, i32 0, i32 2
  %38 = load ptr, ptr %37, align 8
  %39 = load i32, ptr %6, align 4
  %40 = sext i32 %39 to i64
  %41 = getelementptr %struct.col_item_t, ptr %38, i64 %40
  %42 = getelementptr inbounds %struct.col_item_t, ptr %41, i32 0, i32 8
  %43 = load ptr, ptr %42, align 8
  call void @set_time_seconds(ptr noundef %35, ptr noundef %7, ptr noundef %43)
  %44 = load ptr, ptr %5, align 8
  %45 = getelementptr inbounds %struct.epan_column_info, ptr %44, i32 0, i32 5
  %46 = getelementptr inbounds %struct.col_expr_t, ptr %45, i32 0, i32 0
  %47 = load ptr, ptr %46, align 8
  %48 = load i32, ptr %6, align 4
  %49 = sext i32 %48 to i64
  %50 = getelementptr ptr, ptr %47, i64 %49
  store ptr @.str.33, ptr %50, align 8
  %51 = load ptr, ptr %5, align 8
  %52 = getelementptr inbounds %struct.epan_column_info, ptr %51, i32 0, i32 5
  %53 = getelementptr inbounds %struct.col_expr_t, ptr %52, i32 0, i32 1
  %54 = load ptr, ptr %53, align 8
  %55 = load i32, ptr %6, align 4
  %56 = sext i32 %55 to i64
  %57 = getelementptr ptr, ptr %54, i64 %56
  %58 = load ptr, ptr %57, align 8
  %59 = load ptr, ptr %5, align 8
  %60 = getelementptr inbounds %struct.epan_column_info, ptr %59, i32 0, i32 2
  %61 = load ptr, ptr %60, align 8
  %62 = load i32, ptr %6, align 4
  %63 = sext i32 %62 to i64
  %64 = getelementptr %struct.col_item_t, ptr %61, i64 %63
  %65 = getelementptr inbounds %struct.col_item_t, ptr %64, i32 0, i32 8
  %66 = load ptr, ptr %65, align 8
  %67 = call i64 @g_strlcpy(ptr noundef %58, ptr noundef %66, i64 noundef 2048)
  br label %96

68:                                               ; preds = %25
  %69 = load ptr, ptr %4, align 8
  %70 = load ptr, ptr %5, align 8
  %71 = getelementptr inbounds %struct.epan_column_info, ptr %70, i32 0, i32 2
  %72 = load ptr, ptr %71, align 8
  %73 = load i32, ptr %6, align 4
  %74 = sext i32 %73 to i64
  %75 = getelementptr %struct.col_item_t, ptr %72, i64 %74
  %76 = getelementptr inbounds %struct.col_item_t, ptr %75, i32 0, i32 8
  %77 = load ptr, ptr %76, align 8
  %78 = load ptr, ptr @col_decimal_point, align 8
  call void @set_time_hour_min_sec(ptr noundef %69, ptr noundef %7, ptr noundef %77, ptr noundef %78)
  %79 = load ptr, ptr %5, align 8
  %80 = getelementptr inbounds %struct.epan_column_info, ptr %79, i32 0, i32 5
  %81 = getelementptr inbounds %struct.col_expr_t, ptr %80, i32 0, i32 0
  %82 = load ptr, ptr %81, align 8
  %83 = load i32, ptr %6, align 4
  %84 = sext i32 %83 to i64
  %85 = getelementptr ptr, ptr %82, i64 %84
  store ptr @.str.33, ptr %85, align 8
  %86 = load ptr, ptr %4, align 8
  %87 = load ptr, ptr %5, align 8
  %88 = getelementptr inbounds %struct.epan_column_info, ptr %87, i32 0, i32 5
  %89 = getelementptr inbounds %struct.col_expr_t, ptr %88, i32 0, i32 1
  %90 = load ptr, ptr %89, align 8
  %91 = load i32, ptr %6, align 4
  %92 = sext i32 %91 to i64
  %93 = getelementptr ptr, ptr %90, i64 %92
  %94 = load ptr, ptr %93, align 8
  call void @set_time_seconds(ptr noundef %86, ptr noundef %7, ptr noundef %94)
  br label %96

95:                                               ; preds = %25
  call void (ptr, i32, ptr, i64, ptr, ptr, ...) @ws_log_fatal_full(ptr noundef @.str.1, i32 noundef 7, ptr noundef @.str.7, i64 noundef 1320, ptr noundef @__func__.col_set_delta_time_dis, ptr noundef @.str.9) #10
  unreachable

96:                                               ; preds = %68, %34
  %97 = load ptr, ptr %5, align 8
  %98 = getelementptr inbounds %struct.epan_column_info, ptr %97, i32 0, i32 2
  %99 = load ptr, ptr %98, align 8
  %100 = load i32, ptr %6, align 4
  %101 = sext i32 %100 to i64
  %102 = getelementptr %struct.col_item_t, ptr %99, i64 %101
  %103 = getelementptr inbounds %struct.col_item_t, ptr %102, i32 0, i32 8
  %104 = load ptr, ptr %103, align 8
  %105 = load ptr, ptr %5, align 8
  %106 = getelementptr inbounds %struct.epan_column_info, ptr %105, i32 0, i32 2
  %107 = load ptr, ptr %106, align 8
  %108 = load i32, ptr %6, align 4
  %109 = sext i32 %108 to i64
  %110 = getelementptr %struct.col_item_t, ptr %107, i64 %109
  %111 = getelementptr inbounds %struct.col_item_t, ptr %110, i32 0, i32 7
  store ptr %104, ptr %111, align 8
  br label %112

112:                                              ; preds = %96, %15
  ret void
}